target datalayout = "e-m:e-p270:32:32-p271:32:32-p272:64:64-i64:64-i128:128-f80:128-n8:16:32:64-S128"
target triple = "x86_64-unknown-linux-gnu"

%"class.icu_75::MaybeStackArray" = type <{ ptr, i32, i8, [40 x i8], [3 x i8] }>
%"class.icu_75::MeasureUnit" = type <{ %"class.icu_75::UObject", ptr, i16, i8, [5 x i8] }>
%"class.icu_75::UObject" = type { ptr }
%"class.icu_75::MeasureUnitImpl" = type { i32, %"class.icu_75::MaybeStackVector", %"class.icu_75::CharString" }
%"class.icu_75::MaybeStackVector" = type { %"class.icu_75::MemoryPool" }
%"class.icu_75::MemoryPool" = type { i32, %"class.icu_75::MaybeStackArray.0" }
%"class.icu_75::MaybeStackArray.0" = type { ptr, i32, i8, [8 x ptr] }
%"class.icu_75::CharString" = type { %"class.icu_75::MaybeStackArray", i32, [4 x i8] }
%"class.icu_75::StringPiece" = type <{ ptr, i32, [4 x i8] }>

@_ZN6icu_75L8gOffsetsE = internal constant [24 x i32] [i32 0, i32 2, i32 7, i32 17, i32 27, i32 31, i32 332, i32 343, i32 360, i32 364, i32 373, i32 376, i32 380, i32 388, i32 410, i32 414, i32 429, i32 430, i32 436, i32 447, i32 452, i32 456, i32 458, i32 492], align 16
@_ZN6icu_7515MaybeStackArrayIcLi40EED1Ev = weak_odr unnamed_addr alias void (ptr), ptr @_ZN6icu_7515MaybeStackArrayIcLi40EED2Ev

; Function Attrs: mustprogress uwtable
define linkonce_odr void @_ZN6icu_7515MaybeStackArrayIPNS_14SingleUnitImplELi8EE12releaseArrayEv(ptr noundef nonnull align 8 dereferenceable(80) %this) #1 comdat align 2 {
entry:
  %this.addr = alloca ptr, align 8
  store ptr %this, ptr %this.addr, align 8
  %this1 = load ptr, ptr %this.addr, align 8
  %needToRelease = getelementptr inbounds %"class.icu_75::MaybeStackArray.0", ptr %this1, i32 0, i32 2
  %0 = load i8, ptr %needToRelease, align 4
  %tobool = icmp ne i8 %0, 0
  br i1 %tobool, label %if.then, label %if.end

if.then:                                          ; preds = %entry
  %ptr = getelementptr inbounds %"class.icu_75::MaybeStackArray.0", ptr %this1, i32 0, i32 0
  %1 = load ptr, ptr %ptr, align 8
  call void @uprv_free_75(ptr noundef %1)
  br label %if.end

if.end:                                           ; preds = %if.then, %entry
  ret void
}

; Function Attrs: mustprogress nounwind uwtable
define linkonce_odr void @_ZN6icu_7515MaybeStackArrayIPNS_14SingleUnitImplELi8EED2Ev(ptr noundef nonnull align 8 dereferenceable(80) %this) unnamed_addr #0 comdat align 2 personality ptr @__gxx_personality_v0 {
entry:
  %this.addr = alloca ptr, align 8
  store ptr %this, ptr %this.addr, align 8
  %this1 = load ptr, ptr %this.addr, align 8
  invoke void @_ZN6icu_7515MaybeStackArrayIPNS_14SingleUnitImplELi8EE12releaseArrayEv(ptr noundef nonnull align 8 dereferenceable(80) %this1)
          to label %invoke.cont unwind label %terminate.lpad

invoke.cont:                                      ; preds = %entry
  ret void

terminate.lpad:                                   ; preds = %entry
  %0 = landingpad { ptr, i32 }
          catch ptr null
  %1 = extractvalue { ptr, i32 } %0, 0
  call void @__clang_call_terminate(ptr %1) #10
  unreachable
}

; Function Attrs: mustprogress nounwind uwtable
define linkonce_odr noundef nonnull align 8 dereferenceable(8) ptr @_ZN6icu_7515MaybeStackArrayIPNS_14SingleUnitImplELi8EEixEl(ptr noundef nonnull align 8 dereferenceable(80) %this, i64 noundef %i) #0 comdat align 2 {
entry:
  %this.addr = alloca ptr, align 8
  %i.addr = alloca i64, align 8
  store ptr %this, ptr %this.addr, align 8
  store i64 %i, ptr %i.addr, align 8
  %this1 = load ptr, ptr %this.addr, align 8
  %ptr = getelementptr inbounds %"class.icu_75::MaybeStackArray.0", ptr %this1, i32 0, i32 0
  %0 = load ptr, ptr %ptr, align 8
  %1 = load i64, ptr %i.addr, align 8
  %arrayidx = getelementptr inbounds ptr, ptr %0, i64 %1
  ret ptr %arrayidx
}

; Function Attrs: mustprogress nounwind uwtable
define linkonce_odr void @_ZN6icu_7510MemoryPoolINS_14SingleUnitImplELi8EED2Ev(ptr noundef nonnull align 8 dereferenceable(88) %this) unnamed_addr #0 comdat align 2 personality ptr @__gxx_personality_v0 {
entry:
  %this.addr = alloca ptr, align 8
  %i = alloca i32, align 4
  store ptr %this, ptr %this.addr, align 8
  %this1 = load ptr, ptr %this.addr, align 8
  store i32 0, ptr %i, align 4
  br label %for.cond

for.cond:                                         ; preds = %for.inc, %entry
  %0 = load i32, ptr %i, align 4
  %fCount = getelementptr inbounds %"class.icu_75::MemoryPool", ptr %this1, i32 0, i32 0
  %1 = load i32, ptr %fCount, align 8
  %cmp = icmp slt i32 %0, %1
  br i1 %cmp, label %for.body, label %for.end

for.body:                                         ; preds = %for.cond
  %fPool = getelementptr inbounds %"class.icu_75::MemoryPool", ptr %this1, i32 0, i32 1
  %2 = load i32, ptr %i, align 4
  %conv = sext i32 %2 to i64
  %call = invoke noundef nonnull align 8 dereferenceable(8) ptr @_ZN6icu_7515MaybeStackArrayIPNS_14SingleUnitImplELi8EEixEl(ptr noundef nonnull align 8 dereferenceable(80) %fPool, i64 noundef %conv)
          to label %invoke.cont unwind label %terminate.lpad

invoke.cont:                                      ; preds = %for.body
  %3 = load ptr, ptr %call, align 8
  %isnull = icmp eq ptr %3, null
  br i1 %isnull, label %delete.end, label %delete.notnull

delete.notnull:                                   ; preds = %invoke.cont
  call void @_ZN6icu_757UMemorydlEPv(ptr noundef %3) #8
  br label %delete.end

delete.end:                                       ; preds = %delete.notnull, %invoke.cont
  br label %for.inc

for.inc:                                          ; preds = %delete.end
  %4 = load i32, ptr %i, align 4
  %inc = add nsw i32 %4, 1
  store i32 %inc, ptr %i, align 4
  br label %for.cond, !llvm.loop !11

for.end:                                          ; preds = %for.cond
  %fPool2 = getelementptr inbounds %"class.icu_75::MemoryPool", ptr %this1, i32 0, i32 1
  call void @_ZN6icu_7515MaybeStackArrayIPNS_14SingleUnitImplELi8EED2Ev(ptr noundef nonnull align 8 dereferenceable(80) %fPool2) #8
  ret void

terminate.lpad:                                   ; preds = %for.body
  %5 = landingpad { ptr, i32 }
          catch ptr null
  %6 = extractvalue { ptr, i32 } %5, 0
  call void @__clang_call_terminate(ptr %6) #10
  unreachable
}

; Function Attrs: mustprogress nounwind uwtable
define linkonce_odr void @_ZN6icu_7516MaybeStackVectorINS_14SingleUnitImplELi8EED2Ev(ptr noundef nonnull align 8 dereferenceable(88) %this) unnamed_addr #0 comdat align 2 {
entry:
  %this.addr = alloca ptr, align 8
  store ptr %this, ptr %this.addr, align 8
  %this1 = load ptr, ptr %this.addr, align 8
  call void @_ZN6icu_7510MemoryPoolINS_14SingleUnitImplELi8EED2Ev(ptr noundef nonnull align 8 dereferenceable(88) %this1) #8
  ret void
}

; Function Attrs: mustprogress nounwind uwtable
define linkonce_odr void @_ZN6icu_7510CharStringD2Ev(ptr noundef nonnull align 8 dereferenceable(60) %this) unnamed_addr #0 comdat align 2 {
entry:
  %this.addr = alloca ptr, align 8
  store ptr %this, ptr %this.addr, align 8
  %this1 = load ptr, ptr %this.addr, align 8
  %buffer = getelementptr inbounds %"class.icu_75::CharString", ptr %this1, i32 0, i32 0
  call void @_ZN6icu_7515MaybeStackArrayIcLi40EED1Ev(ptr noundef nonnull align 8 dereferenceable(53) %buffer) #8
  ret void
}

; Function Attrs: mustprogress nounwind uwtable
define linkonce_odr void @_ZN6icu_7515MeasureUnitImplD2Ev(ptr noundef nonnull align 8 dereferenceable(160) %this) unnamed_addr #0 comdat align 2 {
entry:
  %this.addr = alloca ptr, align 8
  store ptr %this, ptr %this.addr, align 8
  %this1 = load ptr, ptr %this.addr, align 8
  %identifier = getelementptr inbounds %"class.icu_75::MeasureUnitImpl", ptr %this1, i32 0, i32 2
  call void @_ZN6icu_7510CharStringD2Ev(ptr noundef nonnull align 8 dereferenceable(60) %identifier) #8
  %singleUnits = getelementptr inbounds %"class.icu_75::MeasureUnitImpl", ptr %this1, i32 0, i32 1
  call void @_ZN6icu_7516MaybeStackVectorINS_14SingleUnitImplELi8EED2Ev(ptr noundef nonnull align 8 dereferenceable(88) %singleUnits) #8
  ret void
}

; Function Attrs: mustprogress nounwind uwtable
define void @_ZN6icu_7511MeasureUnit5setToEii(ptr noundef nonnull align 8 dereferenceable(19) %this, i32 noundef %typeId, i32 noundef %subTypeId) #0 align 2 {
entry:
  %this.addr = alloca ptr, align 8
  %typeId.addr = alloca i32, align 4
  %subTypeId.addr = alloca i32, align 4
  store ptr %this, ptr %this.addr, align 8
  store i32 %typeId, ptr %typeId.addr, align 4
  store i32 %subTypeId, ptr %subTypeId.addr, align 4
  %this1 = load ptr, ptr %this.addr, align 8
  %0 = load i32, ptr %typeId.addr, align 4
  %conv = trunc i32 %0 to i8
  %fTypeId = getelementptr inbounds %"class.icu_75::MeasureUnit", ptr %this1, i32 0, i32 3
  store i8 %conv, ptr %fTypeId, align 2
  %1 = load i32, ptr %subTypeId.addr, align 4
  %conv2 = trunc i32 %1 to i16
  %fSubTypeId = getelementptr inbounds %"class.icu_75::MeasureUnit", ptr %this1, i32 0, i32 2
  store i16 %conv2, ptr %fSubTypeId, align 8
  %fImpl = getelementptr inbounds %"class.icu_75::MeasureUnit", ptr %this1, i32 0, i32 1
  %2 = load ptr, ptr %fImpl, align 8
  %cmp = icmp ne ptr %2, null
  br i1 %cmp, label %if.then, label %if.end

if.then:                                          ; preds = %entry
  %fImpl3 = getelementptr inbounds %"class.icu_75::MeasureUnit", ptr %this1, i32 0, i32 1
  %3 = load ptr, ptr %fImpl3, align 8
  %isnull = icmp eq ptr %3, null
  br i1 %isnull, label %delete.end, label %delete.notnull

delete.notnull:                                   ; preds = %if.then
  call void @_ZN6icu_7515MeasureUnitImplD2Ev(ptr noundef nonnull align 8 dereferenceable(160) %3) #8
  call void @_ZN6icu_757UMemorydlEPv(ptr noundef %3) #8
  br label %delete.end

delete.end:                                       ; preds = %delete.notnull, %if.then
  %fImpl4 = getelementptr inbounds %"class.icu_75::MeasureUnit", ptr %this1, i32 0, i32 1
  store ptr null, ptr %fImpl4, align 8
  br label %if.end

if.end:                                           ; preds = %delete.end, %entry
  ret void
}

; Function Attrs: mustprogress uwtable
define internal noundef i32 @_ZN6icu_75L12binarySearchEPKPKciiNS_11StringPieceE(ptr noundef %array, i32 noundef %start, i32 noundef %end, ptr %key.coerce0, i32 %key.coerce1) #1 {
entry:
  %retval = alloca i32, align 4
  %key = alloca %"class.icu_75::StringPiece", align 8
  %array.addr = alloca ptr, align 8
  %start.addr = alloca i32, align 4
  %end.addr = alloca i32, align 4
  %mid = alloca i32, align 4
  %cmp1 = alloca i32, align 4
  %ref.tmp = alloca %"class.icu_75::StringPiece", align 8
  %agg.tmp = alloca %"class.icu_75::StringPiece", align 8
  %0 = getelementptr inbounds { ptr, i32 }, ptr %key, i32 0, i32 0
  store ptr %key.coerce0, ptr %0, align 8
  %1 = getelementptr inbounds { ptr, i32 }, ptr %key, i32 0, i32 1
  store i32 %key.coerce1, ptr %1, align 8
  store ptr %array, ptr %array.addr, align 8
  store i32 %start, ptr %start.addr, align 4
  store i32 %end, ptr %end.addr, align 4
  br label %while.cond

while.cond:                                       ; preds = %if.end6, %if.then, %entry
  %2 = load i32, ptr %start.addr, align 4
  %3 = load i32, ptr %end.addr, align 4
  %cmp = icmp slt i32 %2, %3
  br i1 %cmp, label %while.body, label %while.end

while.body:                                       ; preds = %while.cond
  %4 = load i32, ptr %start.addr, align 4
  %5 = load i32, ptr %end.addr, align 4
  %add = add nsw i32 %4, %5
  %div = sdiv i32 %add, 2
  store i32 %div, ptr %mid, align 4
  %6 = load ptr, ptr %array.addr, align 8
  %7 = load i32, ptr %mid, align 4
  %idxprom = sext i32 %7 to i64
  %arrayidx = getelementptr inbounds ptr, ptr %6, i64 %idxprom
  %8 = load ptr, ptr %arrayidx, align 8
  call void @_ZN6icu_7511StringPieceC1EPKc(ptr noundef nonnull align 8 dereferenceable(12) %ref.tmp, ptr noundef %8)
  call void @llvm.memcpy.p0.p0.i64(ptr align 8 %agg.tmp, ptr align 8 %key, i64 16, i1 false)
  %9 = getelementptr inbounds { ptr, i32 }, ptr %agg.tmp, i32 0, i32 0
  %10 = load ptr, ptr %9, align 8
  %11 = getelementptr inbounds { ptr, i32 }, ptr %agg.tmp, i32 0, i32 1
  %12 = load i32, ptr %11, align 8
  %call = call noundef i32 @_ZN6icu_7511StringPiece7compareES0_(ptr noundef nonnull align 8 dereferenceable(12) %ref.tmp, ptr %10, i32 %12)
  store i32 %call, ptr %cmp1, align 4
  %13 = load i32, ptr %cmp1, align 4
  %cmp2 = icmp slt i32 %13, 0
  br i1 %cmp2, label %if.then, label %if.end

if.then:                                          ; preds = %while.body
  %14 = load i32, ptr %mid, align 4
  %add3 = add nsw i32 %14, 1
  store i32 %add3, ptr %start.addr, align 4
  br label %while.cond, !llvm.loop !10

if.end:                                           ; preds = %while.body
  %15 = load i32, ptr %cmp1, align 4
  %cmp4 = icmp eq i32 %15, 0
  br i1 %cmp4, label %if.then5, label %if.end6

if.then5:                                         ; preds = %if.end
  %16 = load i32, ptr %mid, align 4
  store i32 %16, ptr %retval, align 4
  br label %return

if.end6:                                          ; preds = %if.end
  %17 = load i32, ptr %mid, align 4
  store i32 %17, ptr %end.addr, align 4
  br label %while.cond, !llvm.loop !10

while.end:                                        ; preds = %while.cond
  store i32 -1, ptr %retval, align 4
  br label %return

return:                                           ; preds = %while.end, %if.then5
  %18 = load i32, ptr %retval, align 4
  ret i32 %18
}

; Function Attrs: mustprogress uwtable
define noundef zeroext i1 @_ZN6icu_7511MeasureUnit13findBySubTypeENS_11StringPieceEPS0_(ptr %subType.coerce0, i32 %subType.coerce1, ptr noundef %output) #1 align 2 {
entry:
  %retval = alloca i1, align 1
  %subType = alloca %"class.icu_75::StringPiece", align 8
  %output.addr = alloca ptr, align 8
  %t = alloca i32, align 4
  %st = alloca i32, align 4
  %agg.tmp = alloca %"class.icu_75::StringPiece", align 8
  %0 = getelementptr inbounds { ptr, i32 }, ptr %subType, i32 0, i32 0
  store ptr %subType.coerce0, ptr %0, align 8
  %1 = getelementptr inbounds { ptr, i32 }, ptr %subType, i32 0, i32 1
  store i32 %subType.coerce1, ptr %1, align 8
  store ptr %output, ptr %output.addr, align 8
  store i32 0, ptr %t, align 4
  br label %for.cond

for.cond:                                         ; preds = %for.inc, %entry
  %2 = load i32, ptr %t, align 4
  %cmp = icmp slt i32 %2, 23
  br i1 %cmp, label %for.body, label %for.end

for.body:                                         ; preds = %for.cond
  %3 = load i32, ptr %t, align 4
  %cmp1 = icmp eq i32 %3, 5
  br i1 %cmp1, label %if.then, label %if.end

if.then:                                          ; preds = %for.body
  br label %for.inc

if.end:                                           ; preds = %for.body
  %4 = load i32, ptr %t, align 4
  %idxprom = sext i32 %4 to i64
  %arrayidx = getelementptr inbounds [24 x i32], ptr @_ZN6icu_75L8gOffsetsE, i64 0, i64 %idxprom
  %5 = load i32, ptr %arrayidx, align 4
  %6 = load i32, ptr %t, align 4
  %add = add nsw i32 %6, 1
  %idxprom2 = sext i32 %add to i64
  %arrayidx3 = getelementptr inbounds [24 x i32], ptr @_ZN6icu_75L8gOffsetsE, i64 0, i64 %idxprom2
  %7 = load i32, ptr %arrayidx3, align 4
  call void @llvm.memcpy.p0.p0.i64(ptr align 8 %agg.tmp, ptr align 8 %subType, i64 16, i1 false)
  %8 = getelementptr inbounds { ptr, i32 }, ptr %agg.tmp, i32 0, i32 0
  %9 = load ptr, ptr %8, align 8
  %10 = getelementptr inbounds { ptr, i32 }, ptr %agg.tmp, i32 0, i32 1
  %11 = load i32, ptr %10, align 8
  %call = call noundef i32 @_ZN6icu_75L12binarySearchEPKPKciiNS_11StringPieceE(ptr noundef @_ZN6icu_75L9gSubTypesE, i32 noundef %5, i32 noundef %7, ptr %9, i32 %11)
  store i32 %call, ptr %st, align 4
  %12 = load i32, ptr %st, align 4
  %cmp4 = icmp sge i32 %12, 0
  br i1 %cmp4, label %if.then5, label %if.end8

if.then5:                                         ; preds = %if.end
  %13 = load ptr, ptr %output.addr, align 8
  %14 = load i32, ptr %t, align 4
  %15 = load i32, ptr %st, align 4
  %16 = load i32, ptr %t, align 4
  %idxprom6 = sext i32 %16 to i64
  %arrayidx7 = getelementptr inbounds [24 x i32], ptr @_ZN6icu_75L8gOffsetsE, i64 0, i64 %idxprom6
  %17 = load i32, ptr %arrayidx7, align 4
  %sub = sub nsw i32 %15, %17
  call void @_ZN6icu_7511MeasureUnit5setToEii(ptr noundef nonnull align 8 dereferenceable(19) %13, i32 noundef %14, i32 noundef %sub)
  store i1 true, ptr %retval, align 1
  br label %return

if.end8:                                          ; preds = %if.end
  br label %for.inc

for.inc:                                          ; preds = %if.end8, %if.then
  %18 = load i32, ptr %t, align 4
  %inc = add nsw i32 %18, 1
  store i32 %inc, ptr %t, align 4
  br label %for.cond, !llvm.loop !4

for.end:                                          ; preds = %for.cond
  store i1 false, ptr %retval, align 1
  br label %return

return:                                           ; preds = %for.end, %if.then5
  %19 = load i1, ptr %retval, align 1
  ret i1 %19
}