; Function Attrs: mustprogress uwtable
define noundef zeroext i1 @_ZN6icu_7511MeasureUnit13findBySubTypeENS_11StringPieceEPS0_(ptr %subType.coerce0, i32 %subType.coerce1, ptr nocapture noundef %output) local_unnamed_addr #1 align 2 personality ptr @__gxx_personality_v0 {
entry:
  %ref.tmp.i = alloca %"class.icu_75::StringPiece", align 8
  br label %for.body

for.body:                                         ; preds = %entry, %for.inc
  %indvars.iv = phi i64 [ 0, %entry ], [ %indvars.iv.next.pre-phi, %for.inc ]
  %cmp21 = phi i1 [ true, %entry ], [ %cmp, %for.inc ]
  %cmp1 = icmp eq i64 %indvars.iv, 5
  br i1 %cmp1, label %for.inc, label %if.end

if.end:                                           ; preds = %for.body
  %arrayidx = getelementptr inbounds [24 x i32], ptr @_ZN6icu_75L8gOffsetsE, i64 0, i64 %indvars.iv
  %0 = load i32, ptr %arrayidx, align 4
  %1 = add nuw nsw i64 %indvars.iv, 1
  %arrayidx3 = getelementptr inbounds [24 x i32], ptr @_ZN6icu_75L8gOffsetsE, i64 0, i64 %1
  %2 = load i32, ptr %arrayidx3, align 4
  call void @llvm.lifetime.start.p0(i64 16, ptr nonnull %ref.tmp.i)
  br label %while.cond.outer.i

while.cond.outer.i:                               ; preds = %if.end.i, %if.end
  %end.addr.0.ph.i = phi i32 [ %div.i, %if.end.i ], [ %2, %if.end ]
  %start.addr.0.ph.i = phi i32 [ %start.addr.010.i, %if.end.i ], [ %0, %if.end ]
  %cmp9.i = icmp slt i32 %start.addr.0.ph.i, %end.addr.0.ph.i
  br i1 %cmp9.i, label %while.body.i, label %_ZN6icu_75L12binarySearchEPKPKciiNS_11StringPieceE.exit.thread

while.body.i:                                     ; preds = %while.cond.outer.i, %if.then.i
  %start.addr.010.i = phi i32 [ %add3.i, %if.then.i ], [ %start.addr.0.ph.i, %while.cond.outer.i ]
  %add.i = add nsw i32 %start.addr.010.i, %end.addr.0.ph.i
  %div.i = sdiv i32 %add.i, 2
  %idxprom.i = sext i32 %div.i to i64
  %arrayidx.i = getelementptr inbounds ptr, ptr @_ZN6icu_75L9gSubTypesE, i64 %idxprom.i
  %3 = load ptr, ptr %arrayidx.i, align 8
  call void @_ZN6icu_7511StringPieceC1EPKc(ptr noundef nonnull align 8 dereferenceable(12) %ref.tmp.i, ptr noundef %3)
  %call.i = call noundef i32 @_ZN6icu_7511StringPiece7compareES0_(ptr noundef nonnull align 8 dereferenceable(12) %ref.tmp.i, ptr %subType.coerce0, i32 %subType.coerce1)
  %cmp2.i = icmp slt i32 %call.i, 0
  br i1 %cmp2.i, label %if.then.i, label %if.end.i

if.then.i:                                        ; preds = %while.body.i
  %add3.i = add nsw i32 %div.i, 1
  %cmp.i = icmp slt i32 %add3.i, %end.addr.0.ph.i
  br i1 %cmp.i, label %while.body.i, label %_ZN6icu_75L12binarySearchEPKPKciiNS_11StringPieceE.exit.thread, !llvm.loop !6

if.end.i:                                         ; preds = %while.body.i
  %cmp4.i = icmp eq i32 %call.i, 0
  br i1 %cmp4.i, label %_ZN6icu_75L12binarySearchEPKPKciiNS_11StringPieceE.exit, label %while.cond.outer.i, !llvm.loop !6

_ZN6icu_75L12binarySearchEPKPKciiNS_11StringPieceE.exit.thread: ; preds = %while.cond.outer.i, %if.then.i
  call void @llvm.lifetime.end.p0(i64 16, ptr nonnull %ref.tmp.i)
  br label %for.inc

_ZN6icu_75L12binarySearchEPKPKciiNS_11StringPieceE.exit: ; preds = %if.end.i
  call void @llvm.lifetime.end.p0(i64 16, ptr nonnull %ref.tmp.i)
  %cmp4 = icmp sgt i32 %add.i, -2
  br i1 %cmp4, label %if.then5, label %for.inc

if.then5:                                         ; preds = %_ZN6icu_75L12binarySearchEPKPKciiNS_11StringPieceE.exit
  %sub = sub nsw i32 %div.i, %0
  %conv.i = trunc i64 %indvars.iv to i8
  %fTypeId.i = getelementptr inbounds i8, ptr %output, i64 18
  store i8 %conv.i, ptr %fTypeId.i, align 2
  %conv2.i = trunc i32 %sub to i16
  %fSubTypeId.i = getelementptr inbounds i8, ptr %output, i64 16
  store i16 %conv2.i, ptr %fSubTypeId.i, align 8
  %fImpl.i = getelementptr inbounds i8, ptr %output, i64 8
  %4 = load ptr, ptr %fImpl.i, align 8
  %cmp.not.i = icmp eq ptr %4, null
  br i1 %cmp.not.i, label %return, label %delete.notnull.i

delete.notnull.i:                                 ; preds = %if.then5
  %identifier.i.i = getelementptr inbounds i8, ptr %4, i64 96
  call void @_ZN6icu_7515MaybeStackArrayIcLi40EED1Ev(ptr noundef nonnull align 8 dereferenceable(53) %identifier.i.i) #17
  %singleUnits.i.i = getelementptr inbounds i8, ptr %4, i64 8
  %5 = load i32, ptr %singleUnits.i.i, align 8
  %cmp3.i.i.i.i = icmp sgt i32 %5, 0
  br i1 %cmp3.i.i.i.i, label %for.body.lr.ph.i.i.i.i, label %for.end.i.i.i.i

for.body.lr.ph.i.i.i.i:                           ; preds = %delete.notnull.i
  %fPool.i.i.i.i = getelementptr inbounds i8, ptr %4, i64 16
  br label %for.body.i.i.i.i

for.body.i.i.i.i:                                 ; preds = %for.inc.i.i.i.i, %for.body.lr.ph.i.i.i.i
  %6 = phi i32 [ %5, %for.body.lr.ph.i.i.i.i ], [ %9, %for.inc.i.i.i.i ]
  %indvars.iv.i.i.i.i = phi i64 [ 0, %for.body.lr.ph.i.i.i.i ], [ %indvars.iv.next.i.i.i.i, %for.inc.i.i.i.i ]
  %7 = load ptr, ptr %fPool.i.i.i.i, align 8
  %arrayidx.i.i.i.i.i = getelementptr inbounds ptr, ptr %7, i64 %indvars.iv.i.i.i.i
  %8 = load ptr, ptr %arrayidx.i.i.i.i.i, align 8
  %isnull.i.i.i.i = icmp eq ptr %8, null
  br i1 %isnull.i.i.i.i, label %for.inc.i.i.i.i, label %delete.notnull.i.i.i.i

delete.notnull.i.i.i.i:                           ; preds = %for.body.i.i.i.i
  call void @_ZN6icu_757UMemorydlEPv(ptr noundef nonnull %8) #17
  %.pre.i.i.i.i = load i32, ptr %singleUnits.i.i, align 8
  br label %for.inc.i.i.i.i

for.inc.i.i.i.i:                                  ; preds = %delete.notnull.i.i.i.i, %for.body.i.i.i.i
  %9 = phi i32 [ %6, %for.body.i.i.i.i ], [ %.pre.i.i.i.i, %delete.notnull.i.i.i.i ]
  %indvars.iv.next.i.i.i.i = add nuw nsw i64 %indvars.iv.i.i.i.i, 1
  %10 = sext i32 %9 to i64
  %cmp.i.i.i.i = icmp slt i64 %indvars.iv.next.i.i.i.i, %10
  br i1 %cmp.i.i.i.i, label %for.body.i.i.i.i, label %for.end.i.i.i.i, !llvm.loop !4

for.end.i.i.i.i:                                  ; preds = %for.inc.i.i.i.i, %delete.notnull.i
  %needToRelease.i.i.i.i.i.i = getelementptr inbounds i8, ptr %4, i64 28
  %11 = load i8, ptr %needToRelease.i.i.i.i.i.i, align 4
  %tobool.not.i.i.i.i.i.i = icmp eq i8 %11, 0
  br i1 %tobool.not.i.i.i.i.i.i, label %_ZN6icu_7515MeasureUnitImplD2Ev.exit.i, label %if.then.i.i.i.i.i.i

if.then.i.i.i.i.i.i:                              ; preds = %for.end.i.i.i.i
  %fPool2.i.i.i.i = getelementptr inbounds i8, ptr %4, i64 16
  %12 = load ptr, ptr %fPool2.i.i.i.i, align 8
  invoke void @uprv_free_75(ptr noundef %12)
          to label %_ZN6icu_7515MeasureUnitImplD2Ev.exit.i unwind label %terminate.lpad.i.i.i.i.i

terminate.lpad.i.i.i.i.i:                         ; preds = %if.then.i.i.i.i.i.i
  %13 = landingpad { ptr, i32 }
          catch ptr null
  %14 = extractvalue { ptr, i32 } %13, 0
  call void @__clang_call_terminate(ptr %14) #19
  unreachable

_ZN6icu_7515MeasureUnitImplD2Ev.exit.i:           ; preds = %if.then.i.i.i.i.i.i, %for.end.i.i.i.i
  call void @_ZN6icu_757UMemorydlEPv(ptr noundef nonnull %4) #17
  store ptr null, ptr %fImpl.i, align 8
  br label %return

for.inc:                                          ; preds = %for.body, %_ZN6icu_75L12binarySearchEPKPKciiNS_11StringPieceE.exit.thread, %_ZN6icu_75L12binarySearchEPKPKciiNS_11StringPieceE.exit
  %indvars.iv.next.pre-phi = phi i64 [ %1, %_ZN6icu_75L12binarySearchEPKPKciiNS_11StringPieceE.exit.thread ], [ %1, %_ZN6icu_75L12binarySearchEPKPKciiNS_11StringPieceE.exit ], [ 6, %for.body ]
  %cmp = icmp ult i64 %indvars.iv, 22
  %exitcond.not = icmp eq i64 %indvars.iv.next.pre-phi, 23
  br i1 %exitcond.not, label %return, label %for.body, !llvm.loop !7

return:                                           ; preds = %for.inc, %_ZN6icu_7515MeasureUnitImplD2Ev.exit.i, %if.then5
  %cmp17 = phi i1 [ %cmp21, %_ZN6icu_7515MeasureUnitImplD2Ev.exit.i ], [ %cmp21, %if.then5 ], [ %cmp, %for.inc ]
  ret i1 %cmp17
}